; Function Attrs: nounwind uwtable
define dso_local noundef i32 @PsetupHeat(double %0, ptr readnone captures(none) %1, ptr readnone captures(none) %2, ptr readnone captures(none) %3, double noundef %4, ptr noundef readonly captures(none) %5) #0 {
  %7 = getelementptr inbounds nuw i8, ptr %5, i64 24
  %8 = load ptr, ptr %7, align 8, !tbaa !20
  %9 = tail call ptr @N_VGetArrayPointer(ptr noundef %8) #11
  %10 = load i64, ptr %5, align 8, !tbaa !13
  %11 = load ptr, ptr %7, align 8, !tbaa !20
  tail call void @N_VConst(double noundef 1.000000e+00, ptr noundef %11) #11
  %12 = getelementptr inbounds nuw i8, ptr %5, i64 16
  %13 = load double, ptr %12, align 8, !tbaa !19
  %14 = tail call double @llvm.fmuladd.f64(double %13, double 4.000000e+00, double %4)
  %15 = fdiv double 1.000000e+00, %14
  %16 = add i64 %10, -1
  %17 = icmp sgt i64 %10, 2
  br i1 %17, label %.lr.ph.us, label %._crit_edge24

.lr.ph.us:                                        ; preds = %6, %._crit_edge.us
  %.01821.us = phi i64 [ %23, %._crit_edge.us ], [ 1, %6 ]
  %18 = mul nuw nsw i64 %.01821.us, %10
  %19 = getelementptr double, ptr %9, i64 %18
  br label %20

20:                                               ; preds = %.lr.ph.us, %20
  %.020.us = phi i64 [ 1, %.lr.ph.us ], [ %22, %20 ]
  %21 = getelementptr double, ptr %19, i64 %.020.us
  store double %15, ptr %21, align 8, !tbaa !22
  %22 = add nuw nsw i64 %.020.us, 1
  %exitcond.not = icmp eq i64 %22, %16
  br i1 %exitcond.not, label %._crit_edge.us, label %20

._crit_edge.us:                                   ; preds = %20
  %23 = add nuw nsw i64 %.01821.us, 1
  %exitcond25.not = icmp eq i64 %23, %16
  br i1 %exitcond25.not, label %._crit_edge24, label %.lr.ph.us

._crit_edge24:                                    ; preds = %._crit_edge.us, %6
  ret i32 0
}